target datalayout = "e-m:e-p270:32:32-p271:32:32-p272:64:64-i64:64-i128:128-f80:128-n8:16:32:64-S128"
target triple = "x86_64-unknown-linux-gnu"

; Function Attrs: mustprogress uwtable
define linkonce_odr hidden void @_ZN6google8protobuf8internal11WriteVarintEmPNSt7__cxx1112basic_stringIcSt11char_traitsIcESaIcEEE(i64 noundef %val, ptr noundef %s) #4 comdat {
entry:
  %val.addr = alloca i64, align 8
  %s.addr = alloca ptr, align 8
  %c = alloca i8, align 1
  store i64 %val, ptr %val.addr, align 8
  store ptr %s, ptr %s.addr, align 8
  br label %while.cond

while.cond:                                       ; preds = %while.body, %entry
  %0 = load i64, ptr %val.addr, align 8
  %cmp = icmp uge i64 %0, 128
  br i1 %cmp, label %while.body, label %while.end

while.body:                                       ; preds = %while.cond
  %1 = load i64, ptr %val.addr, align 8
  %or = or i64 %1, 128
  %conv = trunc i64 %or to i8
  store i8 %conv, ptr %c, align 1
  %2 = load ptr, ptr %s.addr, align 8
  %3 = load i8, ptr %c, align 1
  call void @_ZNSt7__cxx1112basic_stringIcSt11char_traitsIcESaIcEE9push_backEc(ptr noundef nonnull align 8 dereferenceable(32) %2, i8 noundef signext %3)
  %4 = load i64, ptr %val.addr, align 8
  %shr = lshr i64 %4, 7
  store i64 %shr, ptr %val.addr, align 8
  br label %while.cond, !llvm.loop !19

while.end:                                        ; preds = %while.cond
  %5 = load ptr, ptr %s.addr, align 8
  %6 = load i64, ptr %val.addr, align 8
  %conv1 = trunc i64 %6 to i8
  call void @_ZNSt7__cxx1112basic_stringIcSt11char_traitsIcESaIcEE9push_backEc(ptr noundef nonnull align 8 dereferenceable(32) %5, i8 noundef signext %conv1)
  ret void
}

; Function Attrs: mustprogress uwtable
define void @_ZN6google8protobuf8internal11WriteVarintEjmPNSt7__cxx1112basic_stringIcSt11char_traitsIcESaIcEEE(i32 noundef %num, i64 noundef %val, ptr noundef %s) #4 {
entry:
  %num.addr = alloca i32, align 4
  %val.addr = alloca i64, align 8
  %s.addr = alloca ptr, align 8
  store i32 %num, ptr %num.addr, align 4
  store i64 %val, ptr %val.addr, align 8
  store ptr %s, ptr %s.addr, align 8
  %0 = load i32, ptr %num.addr, align 4
  %shl = shl i32 %0, 3
  %conv = zext i32 %shl to i64
  %1 = load ptr, ptr %s.addr, align 8
  call void @_ZN6google8protobuf8internal11WriteVarintEmPNSt7__cxx1112basic_stringIcSt11char_traitsIcESaIcEEE(i64 noundef %conv, ptr noundef %1)
  %2 = load i64, ptr %val.addr, align 8
  %3 = load ptr, ptr %s.addr, align 8
  call void @_ZN6google8protobuf8internal11WriteVarintEmPNSt7__cxx1112basic_stringIcSt11char_traitsIcESaIcEEE(i64 noundef %2, ptr noundef %3)
  ret void
}