; Function Attrs: mustprogress uwtable
define void @_ZN6google8protobuf8internal11WriteVarintEjmPNSt7__cxx1112basic_stringIcSt11char_traitsIcESaIcEEE(i32 noundef %num, i64 noundef %val, ptr noundef %s) local_unnamed_addr #4 {
entry:
  %shl = shl i32 %num, 3
  %conv = zext i32 %shl to i64
  %cmp5.i = icmp ugt i32 %shl, 127
  br i1 %cmp5.i, label %while.body.i, label %_ZN6google8protobuf8internal11WriteVarintEmPNSt7__cxx1112basic_stringIcSt11char_traitsIcESaIcEEE.exit

while.body.i:                                     ; preds = %entry, %while.body.i
  %val.addr.06.i = phi i64 [ %shr.i, %while.body.i ], [ %conv, %entry ]
  %0 = trunc i64 %val.addr.06.i to i8
  %conv.i = or i8 %0, -128
  tail call void @_ZNSt7__cxx1112basic_stringIcSt11char_traitsIcESaIcEE9push_backEc(ptr noundef nonnull align 8 dereferenceable(32) %s, i8 noundef signext %conv.i)
  %shr.i = lshr i64 %val.addr.06.i, 7
  %cmp.i = icmp samesign ugt i64 %val.addr.06.i, 16383
  br i1 %cmp.i, label %while.body.i, label %_ZN6google8protobuf8internal11WriteVarintEmPNSt7__cxx1112basic_stringIcSt11char_traitsIcESaIcEEE.exit, !llvm.loop !21

_ZN6google8protobuf8internal11WriteVarintEmPNSt7__cxx1112basic_stringIcSt11char_traitsIcESaIcEEE.exit: ; preds = %while.body.i, %entry
  %val.addr.0.lcssa.i = phi i64 [ %conv, %entry ], [ %shr.i, %while.body.i ]
  %conv1.i = trunc nuw nsw i64 %val.addr.0.lcssa.i to i8
  tail call void @_ZNSt7__cxx1112basic_stringIcSt11char_traitsIcESaIcEE9push_backEc(ptr noundef nonnull align 8 dereferenceable(32) %s, i8 noundef signext %conv1.i)
  %cmp5.i2 = icmp ugt i64 %val, 127
  br i1 %cmp5.i2, label %while.body.i5, label %_ZN6google8protobuf8internal11WriteVarintEmPNSt7__cxx1112basic_stringIcSt11char_traitsIcESaIcEEE.exit10

while.body.i5:                                    ; preds = %_ZN6google8protobuf8internal11WriteVarintEmPNSt7__cxx1112basic_stringIcSt11char_traitsIcESaIcEEE.exit, %while.body.i5
  %val.addr.06.i6 = phi i64 [ %shr.i8, %while.body.i5 ], [ %val, %_ZN6google8protobuf8internal11WriteVarintEmPNSt7__cxx1112basic_stringIcSt11char_traitsIcESaIcEEE.exit ]
  %1 = trunc i64 %val.addr.06.i6 to i8
  %conv.i7 = or i8 %1, -128
  tail call void @_ZNSt7__cxx1112basic_stringIcSt11char_traitsIcESaIcEE9push_backEc(ptr noundef nonnull align 8 dereferenceable(32) %s, i8 noundef signext %conv.i7)
  %shr.i8 = lshr i64 %val.addr.06.i6, 7
  %cmp.i9 = icmp ugt i64 %val.addr.06.i6, 16383
  br i1 %cmp.i9, label %while.body.i5, label %_ZN6google8protobuf8internal11WriteVarintEmPNSt7__cxx1112basic_stringIcSt11char_traitsIcESaIcEEE.exit10, !llvm.loop !21

_ZN6google8protobuf8internal11WriteVarintEmPNSt7__cxx1112basic_stringIcSt11char_traitsIcESaIcEEE.exit10: ; preds = %while.body.i5, %_ZN6google8protobuf8internal11WriteVarintEmPNSt7__cxx1112basic_stringIcSt11char_traitsIcESaIcEEE.exit
  %val.addr.0.lcssa.i3 = phi i64 [ %val, %_ZN6google8protobuf8internal11WriteVarintEmPNSt7__cxx1112basic_stringIcSt11char_traitsIcESaIcEEE.exit ], [ %shr.i8, %while.body.i5 ]
  %conv1.i4 = trunc nuw nsw i64 %val.addr.0.lcssa.i3 to i8
  tail call void @_ZNSt7__cxx1112basic_stringIcSt11char_traitsIcESaIcEE9push_backEc(ptr noundef nonnull align 8 dereferenceable(32) %s, i8 noundef signext %conv1.i4)
  ret void
}